; Function Attrs: nofree norecurse nosync nounwind memory(readwrite, inaccessiblemem: none) uwtable
define void @Aig_ManMuxesDeref(ptr noundef readnone captures(none) %0, ptr noundef readonly captures(none) %1) local_unnamed_addr #0 {
  %3 = alloca ptr, align 8
  %4 = alloca ptr, align 8
  call void @llvm.lifetime.start.p0(i64 8, ptr nonnull %3) #25
  call void @llvm.lifetime.start.p0(i64 8, ptr nonnull %4) #25
  %5 = getelementptr i8, ptr %1, i64 4
  %.val10 = load i32, ptr %5, align 4, !tbaa !22
  %6 = icmp sgt i32 %.val10, 0
  br i1 %6, label %.lr.ph, label %.critedge

.lr.ph:                                           ; preds = %2
  %7 = getelementptr i8, ptr %1, i64 8
  br label %8

8:                                                ; preds = %.lr.ph, %61
  %indvars.iv = phi i64 [ 0, %.lr.ph ], [ %indvars.iv.next, %61 ]
  %.val7 = load ptr, ptr %7, align 8, !tbaa !24
  %9 = getelementptr inbounds nuw ptr, ptr %.val7, i64 %indvars.iv
  %10 = load ptr, ptr %9, align 8, !tbaa !25
  %11 = getelementptr i8, ptr %10, i64 24
  %.val48.i = load i64, ptr %11, align 8
  %12 = trunc i64 %.val48.i to i32
  %13 = and i32 %12, 7
  %14 = add nsw i32 %13, -7
  %narrow.i.i = icmp ult i32 %14, -2
  br i1 %narrow.i.i, label %59, label %15

15:                                               ; preds = %8
  %16 = and i64 %.val48.i, 7
  %.not.i = icmp eq i64 %16, 6
  %17 = getelementptr i8, ptr %10, i64 8
  %.val40.i = load ptr, ptr %17, align 8, !tbaa !32
  br i1 %.not.i, label %18, label %20

18:                                               ; preds = %15
  %19 = getelementptr i8, ptr %10, i64 16
  %.val41.sink.i.pre = load ptr, ptr %19, align 8, !tbaa !35
  br label %51

20:                                               ; preds = %15
  %21 = ptrtoint ptr %.val40.i to i64
  %22 = and i64 %21, 1
  %.not27.i = icmp eq i64 %22, 0
  br i1 %.not27.i, label %59, label %23

23:                                               ; preds = %20
  %24 = getelementptr i8, ptr %10, i64 16
  %.val42.i = load ptr, ptr %24, align 8, !tbaa !35
  %25 = ptrtoint ptr %.val42.i to i64
  %26 = and i64 %25, 1
  %.not28.i = icmp eq i64 %26, 0
  br i1 %.not28.i, label %59, label %27

27:                                               ; preds = %23
  %28 = and i64 %21, -2
  %29 = inttoptr i64 %28 to ptr
  %30 = and i64 %25, -2
  %31 = inttoptr i64 %30 to ptr
  %32 = getelementptr i8, ptr %29, i64 24
  %.val37.i = load i64, ptr %32, align 8
  %33 = and i64 %.val37.i, 7
  %.not50.i = icmp eq i64 %33, 5
  br i1 %.not50.i, label %34, label %59

34:                                               ; preds = %27
  %35 = getelementptr i8, ptr %31, i64 24
  %.val36.i = load i64, ptr %35, align 8
  %36 = and i64 %.val36.i, 7
  %.not51.i = icmp eq i64 %36, 5
  br i1 %.not51.i, label %37, label %59

37:                                               ; preds = %34
  %38 = getelementptr i8, ptr %29, i64 8
  %.val33.i = load ptr, ptr %38, align 8, !tbaa !32
  %39 = ptrtoint ptr %.val33.i to i64
  %40 = getelementptr i8, ptr %31, i64 8
  %.val.i = load ptr, ptr %40, align 8, !tbaa !32
  %41 = ptrtoint ptr %.val.i to i64
  %42 = xor i64 %41, %39
  %.not31.i = icmp ult i64 %42, 2
  br i1 %.not31.i, label %43, label %59

43:                                               ; preds = %37
  %44 = getelementptr i8, ptr %29, i64 16
  %.val35.i = load ptr, ptr %44, align 8, !tbaa !35
  %45 = ptrtoint ptr %.val35.i to i64
  %46 = getelementptr i8, ptr %31, i64 16
  %.val34.i = load ptr, ptr %46, align 8, !tbaa !35
  %47 = ptrtoint ptr %.val34.i to i64
  %48 = xor i64 %47, %45
  %.not32.i = icmp ugt i64 %48, 1
  %49 = icmp eq ptr %.val.i, %.val33.i
  %or.cond.i = or i1 %49, %.not32.i
  %50 = icmp eq ptr %.val34.i, %.val35.i
  %or.cond52.i = or i1 %50, %or.cond.i
  br i1 %or.cond52.i, label %59, label %51

51:                                               ; preds = %43, %18
  %52 = phi ptr [ %.val40.i, %18 ], [ %.val33.i, %43 ]
  %.val41.sink.i = phi ptr [ %.val41.sink.i.pre, %18 ], [ %.val35.i, %43 ]
  %53 = getelementptr inbounds nuw i8, ptr %52, i64 24
  %54 = load i64, ptr %53, align 8
  %55 = add i64 %54, 4294967232
  %56 = and i64 %55, 4294967232
  %57 = and i64 %54, -4294967233
  %58 = or disjoint i64 %56, %57
  store i64 %58, ptr %53, align 8
  br label %61

59:                                               ; preds = %8, %23, %20, %34, %27, %43, %37
  %60 = call ptr @Aig_ObjRecognizeMux(ptr noundef nonnull %10, ptr noundef nonnull %3, ptr noundef nonnull %4)
  br label %61

61:                                               ; preds = %51, %59
  %.val41.sink.i.sink = phi ptr [ %.val41.sink.i, %51 ], [ %60, %59 ]
  %62 = getelementptr inbounds nuw i8, ptr %.val41.sink.i.sink, i64 24
  %63 = load i64, ptr %62, align 8
  %64 = add i64 %63, 4294967232
  %65 = and i64 %64, 4294967232
  %66 = and i64 %63, -4294967233
  %67 = or disjoint i64 %65, %66
  store i64 %67, ptr %62, align 8
  %indvars.iv.next = add nuw nsw i64 %indvars.iv, 1
  %.val = load i32, ptr %5, align 4, !tbaa !22
  %68 = sext i32 %.val to i64
  %69 = icmp slt i64 %indvars.iv.next, %68
  br i1 %69, label %8, label %.critedge, !llvm.loop !114

.critedge:                                        ; preds = %61, %2
  call void @llvm.lifetime.end.p0(i64 8, ptr nonnull %4) #25
  call void @llvm.lifetime.end.p0(i64 8, ptr nonnull %3) #25
  ret void
}